; Function Attrs: mustprogress uwtable
define hidden void @_ZN16bound_propagator4pushEv(ptr noundef nonnull align 8 dereferenceable(280) %this) local_unnamed_addr #3 align 2 {
entry:
  %m_scopes = getelementptr inbounds i8, ptr %this, i64 208
  %0 = load ptr, ptr %m_scopes, align 8
  %cmp.i = icmp eq ptr %0, null
  br i1 %cmp.i, label %if.then.i, label %lor.lhs.false.i

lor.lhs.false.i:                                  ; preds = %entry
  %arrayidx.i = getelementptr inbounds i8, ptr %0, i64 -4
  %1 = load i32, ptr %arrayidx.i, align 4
  %arrayidx4.i = getelementptr inbounds i8, ptr %0, i64 -8
  %2 = load i32, ptr %arrayidx4.i, align 4
  %cmp5.i = icmp eq i32 %1, %2
  br i1 %cmp5.i, label %if.then.i, label %_ZN6vectorIN16bound_propagator5scopeELb0EjE9push_backEOS1_.exit

if.then.i:                                        ; preds = %lor.lhs.false.i, %entry
  tail call void @_ZN6vectorIN16bound_propagator5scopeELb0EjE13expand_vectorEv(ptr noundef nonnull align 8 dereferenceable(8) %m_scopes)
  %.pre.i = load ptr, ptr %m_scopes, align 8
  %arrayidx8.phi.trans.insert.i = getelementptr inbounds i8, ptr %.pre.i, i64 -4
  %.pre1.i = load i32, ptr %arrayidx8.phi.trans.insert.i, align 4
  br label %_ZN6vectorIN16bound_propagator5scopeELb0EjE9push_backEOS1_.exit

_ZN6vectorIN16bound_propagator5scopeELb0EjE9push_backEOS1_.exit: ; preds = %lor.lhs.false.i, %if.then.i
  %3 = phi i32 [ %.pre1.i, %if.then.i ], [ %1, %lor.lhs.false.i ]
  %4 = phi ptr [ %.pre.i, %if.then.i ], [ %0, %lor.lhs.false.i ]
  %idx.ext.i = zext i32 %3 to i64
  %add.ptr.i = getelementptr inbounds %"struct.bound_propagator::scope", ptr %4, i64 %idx.ext.i
  tail call void @llvm.memset.p0.i64(ptr noundef nonnull align 4 dereferenceable(16) %add.ptr.i, i8 0, i64 16, i1 false)
  %5 = load ptr, ptr %m_scopes, align 8
  %arrayidx10.i = getelementptr inbounds i8, ptr %5, i64 -4
  %6 = load i32, ptr %arrayidx10.i, align 4
  %inc.i = add i32 %6, 1
  store i32 %inc.i, ptr %arrayidx10.i, align 4
  %7 = load ptr, ptr %m_scopes, align 8
  %cmp.i.i = icmp eq ptr %7, null
  br i1 %cmp.i.i, label %_ZN6vectorIN16bound_propagator5scopeELb0EjE4backEv.exit, label %if.end.i.i

if.end.i.i:                                       ; preds = %_ZN6vectorIN16bound_propagator5scopeELb0EjE9push_backEOS1_.exit
  %arrayidx.i.i = getelementptr inbounds i8, ptr %7, i64 -4
  %8 = load i32, ptr %arrayidx.i.i, align 4
  %9 = add i32 %8, -1
  %10 = zext i32 %9 to i64
  br label %_ZN6vectorIN16bound_propagator5scopeELb0EjE4backEv.exit

_ZN6vectorIN16bound_propagator5scopeELb0EjE4backEv.exit: ; preds = %_ZN6vectorIN16bound_propagator5scopeELb0EjE9push_backEOS1_.exit, %if.end.i.i
  %retval.0.i.i = phi i64 [ %10, %if.end.i.i ], [ 4294967295, %_ZN6vectorIN16bound_propagator5scopeELb0EjE9push_backEOS1_.exit ]
  %arrayidx.i1.i = getelementptr inbounds %"struct.bound_propagator::scope", ptr %7, i64 %retval.0.i.i
  %m_trail = getelementptr inbounds i8, ptr %this, i64 128
  %11 = load ptr, ptr %m_trail, align 8
  %cmp.i5 = icmp eq ptr %11, null
  br i1 %cmp.i5, label %_ZNK6vectorIN16bound_propagator10trail_infoELb0EjE4sizeEv.exit, label %if.end.i

if.end.i:                                         ; preds = %_ZN6vectorIN16bound_propagator5scopeELb0EjE4backEv.exit
  %arrayidx.i6 = getelementptr inbounds i8, ptr %11, i64 -4
  %12 = load i32, ptr %arrayidx.i6, align 4
  br label %_ZNK6vectorIN16bound_propagator10trail_infoELb0EjE4sizeEv.exit

_ZNK6vectorIN16bound_propagator10trail_infoELb0EjE4sizeEv.exit: ; preds = %_ZN6vectorIN16bound_propagator5scopeELb0EjE4backEv.exit, %if.end.i
  %retval.0.i = phi i32 [ %12, %if.end.i ], [ 0, %_ZN6vectorIN16bound_propagator5scopeELb0EjE4backEv.exit ]
  store i32 %retval.0.i, ptr %arrayidx.i1.i, align 4
  %m_qhead = getelementptr inbounds i8, ptr %this, i64 136
  %13 = load i32, ptr %m_qhead, align 8
  %m_qhead_old = getelementptr inbounds i8, ptr %arrayidx.i1.i, i64 4
  store i32 %13, ptr %m_qhead_old, align 4
  %m_reinit_stack = getelementptr inbounds i8, ptr %this, i64 144
  %14 = load ptr, ptr %m_reinit_stack, align 8
  %cmp.i7 = icmp eq ptr %14, null
  br i1 %cmp.i7, label %_ZNK6vectorIjLb0EjE4sizeEv.exit, label %if.end.i8

if.end.i8:                                        ; preds = %_ZNK6vectorIN16bound_propagator10trail_infoELb0EjE4sizeEv.exit
  %arrayidx.i9 = getelementptr inbounds i8, ptr %14, i64 -4
  %15 = load i32, ptr %arrayidx.i9, align 4
  br label %_ZNK6vectorIjLb0EjE4sizeEv.exit

_ZNK6vectorIjLb0EjE4sizeEv.exit:                  ; preds = %_ZNK6vectorIN16bound_propagator10trail_infoELb0EjE4sizeEv.exit, %if.end.i8
  %retval.0.i10 = phi i32 [ %15, %if.end.i8 ], [ 0, %_ZNK6vectorIN16bound_propagator10trail_infoELb0EjE4sizeEv.exit ]
  %m_reinit_stack_limit = getelementptr inbounds i8, ptr %arrayidx.i1.i, i64 8
  store i32 %retval.0.i10, ptr %m_reinit_stack_limit, align 4
  %m_timestamp = getelementptr inbounds i8, ptr %this, i64 168
  %16 = load i32, ptr %m_timestamp, align 8
  %m_timestamp_old = getelementptr inbounds i8, ptr %arrayidx.i1.i, i64 12
  %bf.load = load i32, ptr %m_timestamp_old, align 4
  %bf.value = and i32 %16, 2147483647
  %bf.clear = and i32 %bf.load, -2147483648
  %bf.set = or disjoint i32 %bf.clear, %bf.value
  store i32 %bf.set, ptr %m_timestamp_old, align 4
  %m_conflict.i = getelementptr inbounds i8, ptr %this, i64 172
  %17 = load i32, ptr %m_conflict.i, align 4
  %cmp.i11.not = icmp eq i32 %17, -1
  %bf.shl = select i1 %cmp.i11.not, i32 0, i32 -2147483648
  %bf.set10 = or disjoint i32 %bf.shl, %bf.value
  store i32 %bf.set10, ptr %m_timestamp_old, align 4
  ret void
}